; Function Attrs: mustprogress uwtable
define noundef nonnull align 8 dereferenceable(976) ptr @_ZN6icu_7717DateFormatSymbolsaSERKS0_(ptr noundef nonnull returned align 8 dereferenceable(976) %0, ptr noundef nonnull align 8 dereferenceable(976) %1) local_unnamed_addr #1 align 2 {
  %3 = icmp eq ptr %0, %1
  br i1 %3, label %5, label %4

4:                                                ; preds = %2
  tail call void @_ZN6icu_7717DateFormatSymbols7disposeEv(ptr noundef nonnull align 8 dereferenceable(976) %0)
  tail call void @_ZN6icu_7717DateFormatSymbols8copyDataERKS0_(ptr noundef nonnull align 8 dereferenceable(976) %0, ptr noundef nonnull align 8 dereferenceable(976) %1)
  br label %5

5:                                                ; preds = %2, %4
  ret ptr %0
}